(dp0
S'article'
p1
(lp2
Vhttp://nymag.com/thecut/2012/09/este-lauder-has-been-keeping-secrets.html
p3
aVhttp://nymag.com/thecut/2012/09/kelly-osbourne-got-a-250k-pre-emmy-manicure.html
p4
aVhttp://nymag.com/thecut/2012/09/beauty-qa-why-do-i-break-out-from-la-mer.html
p5
aVhttp://nymag.com/thecut/2012/09/three-yellow-emmy-dresses-three-makeup-looks.html
p6
aVhttp://nymag.com/thecut/2012/09/three-beauty-things-i-tried-this-weekend.html
p7
aVhttp://nymag.com/thecut/2012/09/mitt-romney-makeup-culprit-identified.html
p8
aVhttp://nymag.com/thecut/2012/09/how-lady-gaga-casually-makes-her-way-to-sephora.html
p9
aVhttp://nymag.com/thecut/2012/09/best-bet-sun-bum-spf-30-face-stick.html
p10
aVhttp://nymag.com/thecut/2012/09/wet-n-wild-gets-fergalicious.html
p11
aVhttp://nymag.com/thecut/2012/09/georgia-may-jaggers-first-fragrance-campaign.html
p12
asS'lede'
p13
(lp14
Vhttp://nymag.com/thecut/2012/09/kelly-osbourne-got-a-250k-pre-emmy-manicure.html
p15
as.