(dp0
S'article'
p1
(lp2
V/thecut/2012/07/best-bet-glossybox.html
p3
aV/thecut/2012/07/five-days-of-giveaways-on-facebook.html
p4
aV/thecut/2012/06/kristen-stewart-for-balenciaga-florabotanica.html
p5
aV/thecut/2012/07/leandra-medines-crazy-book.html
p6
aV/thecut/2012/07/best-bet-sprout-skincare.html
p7
aV/thecut/2012/07/kate-middletons-bare-feet.html
p8
aV/thecut/2012/07/exclusive-chloe-sevignys-miu-miu-campaign.html
p9
aV/thecut/2012/07/best-bet-ciat-velvet-manicure-kit.html
p10
asS'lede'
p11
(lp12
V/thecut/2012/08/lunchtime-beauty-qa-how-do-i-get-volume.html
p13
aV/thecut/2012/07/best-bet-glossybox.html
p14
aV/thecut/2012/07/five-days-of-giveaways-on-facebook.html
p15
aV/thecut/2012/07/leandra-medines-crazy-book.html
p16
as.