(dp0
Vresult
p1
(lp2
(dp3
Vbasic-info
p4
(lp5
(dp6
Vfashion-lists:seasons/spring
p7
VSpring
p8
sa(dp9
Vfashion-lists:labels/versace
p10
VVersace
p11
sa(dp12
Vyears:2012
p13
V2012
p14
sa(dp15
Vfashion-lists:collection-type/couture
p16
VCouture
p17
sa(dp18
Vfashion-lists:cities/paris
p19
VParis
p20
sa(dp21
Vdate
p22
S''
p23
sasa(dp24
Vtag-status
p25
(lp26
(dp27
Vuntagged
p28
I1
sVtagged
p29
I15
sVtotal
p30
I16
sa(dp31
Vtagged
p32
(dp33
V/content/dam/fashion/shows/2012/spring/paris/couture/versace/collection-full-length/14.jpg
p34
(lp35
V/content/dam/fashion/shows/2012/spring/paris/couture/versace/collection-full-length/14.jpg/jcr:content/items/1-dresses
p36
asV/content/dam/fashion/shows/2012/spring/paris/couture/versace/collection-full-length/8.jpg
p37
(lp38
V/content/dam/fashion/shows/2012/spring/paris/couture/versace/collection-full-length/8.jpg/jcr:content/items/1-jumpsuits
p39
asV/content/dam/fashion/shows/2012/spring/paris/couture/versace/collection-full-length/4.jpg
p40
(lp41
V/content/dam/fashion/shows/2012/spring/paris/couture/versace/collection-full-length/4.jpg/jcr:content/items/1-dresses
p42
aV/content/dam/fashion/shows/2012/spring/paris/couture/versace/collection-full-length/4.jpg/jcr:content/items/1-shoes
p43
asV/content/dam/fashion/shows/2012/spring/paris/couture/versace/collection-full-length/6.jpg
p44
(lp45
V/content/dam/fashion/shows/2012/spring/paris/couture/versace/collection-full-length/6.jpg/jcr:content/items/1-shorts
p46
aV/content/dam/fashion/shows/2012/spring/paris/couture/versace/collection-full-length/6.jpg/jcr:content/items/1-jackets
p47
aV/content/dam/fashion/shows/2012/spring/paris/couture/versace/collection-full-length/6.jpg/jcr:content/items/1-shoes
p48
asV/content/dam/fashion/shows/2012/spring/paris/couture/versace/collection-full-length/12.jpg
p49
(lp50
V/content/dam/fashion/shows/2012/spring/paris/couture/versace/collection-full-length/12.jpg/jcr:content/items/1-dresses
p51
asV/content/dam/fashion/shows/2012/spring/paris/couture/versace/collection-full-length/11.jpg
p52
(lp53
V/content/dam/fashion/shows/2012/spring/paris/couture/versace/collection-full-length/11.jpg/jcr:content/items/1-dresses
p54
asV/content/dam/fashion/shows/2012/spring/paris/couture/versace/collection-full-length/13.jpg
p55
(lp56
V/content/dam/fashion/shows/2012/spring/paris/couture/versace/collection-full-length/13.jpg/jcr:content/items/1-dresses
p57
aV/content/dam/fashion/shows/2012/spring/paris/couture/versace/collection-full-length/13.jpg/jcr:content/items/1-shoes
p58
asV/content/dam/fashion/shows/2012/spring/paris/couture/versace/collection-full-length/5.jpg
p59
(lp60
V/content/dam/fashion/shows/2012/spring/paris/couture/versace/collection-full-length/5.jpg/jcr:content/items/1-dresses
p61
asV/content/dam/fashion/shows/2012/spring/paris/couture/versace/collection-full-length/7.jpg
p62
(lp63
V/content/dam/fashion/shows/2012/spring/paris/couture/versace/collection-full-length/7.jpg/jcr:content/items/1-dresses
p64
asV/content/dam/fashion/shows/2012/spring/paris/couture/versace/collection-full-length/15.jpg
p65
(lp66
V/content/dam/fashion/shows/2012/spring/paris/couture/versace/collection-full-length/15.jpg/jcr:content/items/1-dresses
p67
asV/content/dam/fashion/shows/2012/spring/paris/couture/versace/collection-full-length/3.jpg
p68
(lp69
V/content/dam/fashion/shows/2012/spring/paris/couture/versace/collection-full-length/3.jpg/jcr:content/items/1-dresses
p70
asV/content/dam/fashion/shows/2012/spring/paris/couture/versace/collection-full-length/10.jpg
p71
(lp72
V/content/dam/fashion/shows/2012/spring/paris/couture/versace/collection-full-length/10.jpg/jcr:content/items/1-dresses
p73
aV/content/dam/fashion/shows/2012/spring/paris/couture/versace/collection-full-length/10.jpg/jcr:content/items/1-shoes
p74
asV/content/dam/fashion/shows/2012/spring/paris/couture/versace/collection-full-length/2.jpg
p75
(lp76
V/content/dam/fashion/shows/2012/spring/paris/couture/versace/collection-full-length/2.jpg/jcr:content/items/1-dresses
p77
asV/content/dam/fashion/shows/2012/spring/paris/couture/versace/collection-full-length/9.jpg
p78
(lp79
V/content/dam/fashion/shows/2012/spring/paris/couture/versace/collection-full-length/9.jpg/jcr:content/items/1-jackets
p80
aV/content/dam/fashion/shows/2012/spring/paris/couture/versace/collection-full-length/9.jpg/jcr:content/items/1-dresses
p81
aV/content/dam/fashion/shows/2012/spring/paris/couture/versace/collection-full-length/9.jpg/jcr:content/items/1-shoes
p82
asV/content/dam/fashion/shows/2012/spring/paris/couture/versace/collection-full-length/1.jpg
p83
(lp84
V/content/dam/fashion/shows/2012/spring/paris/couture/versace/collection-full-length/1.jpg/jcr:content/items/1-dresses
p85
assa(dp86
Vuntagged
p87
(lp88
V/content/dam/fashion/shows/2012/spring/paris/couture/versace/collection-full-length/16.jpg
p89
asasa(dp90
Vimage-sources
p91
(dp92
VStaff or Contracted
p93
VStaff or Contracted
p94
sVCourtesy shot
p95
VCourtesy shot
p96
sVFirstview
p97
VFirstview
p98
sVAP
p99
VAP
p100
sVGetty
p101
VGetty
p102
sVFilmMagic
p103
VFilmMagic
p104
sVPatrick McMullan
p105
VPatrick McMullan
p106
sVCorbis
p107
VCorbis
p108
sVMagnum
p109
VMagnum
p110
sVPolaris
p111
VPolaris
p112
sVImaxtree
p113
VImaxtree
p114
ssa(dp115
Vimage-sources-applied
p116
(dp117
Vcollection-back
p118
g23
sVbackstage
p119
g23
sVcollection-full-length
p120
VImaxtree
p121
sVbeauty
p122
g23
sVcollection-detail
p123
g23
ssa(dp124
Vgallery-title
p125
(dp126
Vcollection-back
p127
g23
sVbackstage
p128
VBackstage & Front Row
p129
sVcollection-full-length
p130
g23
sVbeauty
p131
g23
sVcollection-detail
p132
g23
ssa(dp133
Vmeta-description
p134
VView the Versace Spring 2012 Couture collection. See photos and video of the S2012CTR runway show.
p135
sa(dp136
Vvideos
p137
(lp138
sa(dp139
Vpage-activation-status
p140
(dp141
Vdelivered
p142
Vtrue
p143
sVactivated
p144
Vtrue
p145
sVpending
p146
Vfalse
p147
sVdeactivated
p148
Vfalse
p149
ssa(dp150
Vslideshow-activation-status
p151
(dp152
Vfashion-backstage
p153
Vfalse
p154
sVfashion-backs
p155
Vfalse
p156
sVfashion-runway
p157
Vtrue
p158
sVfashion-details
p159
Vfalse
p160
sVfashion-beauty
p161
Vfalse
p162
ssa(dp163
Vpage-activation-history
p164
(dp165
V2012.09.01 10:24:26
p166
VPage Activation
p167
ssa(dp168
Voffset-coordinates
p169
(dp170
Vy
p171
V0
p172
sVx
p173
V90
p174
ssa(dp175
Vbeauty-notes
p176
g23
sa(dp177
Vcritical-reaction
p178
g23
sa(dp179
Vstandout-accessories
p180
(lp181
sa(dp182
Vtrends
p183
(lp184
sa(dp185
Vafter-party-slideshow
p186
g23
sa(dp187
Vshow-name
p188
VVersace
p189
sa(lp190
a(dp191
Vone-sentence-review
p192
g23
sa(dp193
Vpalette-rendition-paths
p194
(lp195
sa(dp196
Vslideshow-creation-status
p197
(dp198
Vfashion-backstage
p199
I0
sVfashion-backs
p200
I0
sVfashion-runway
p201
I16
sVfashion-details
p202
I0
sVfashion-beauty
p203
I0
ssa(dp204
Vdisplay-show-notes
p205
g23
sa(dp206
VbackstageTeaser
p207
g23
sas.