(dp0
Vresult
p1
(lp2
(dp3
Vbasic-info
p4
(lp5
(dp6
Vfashion-lists:seasons/spring
p7
VSpring
p8
sa(dp9
Vfashion-lists:labels/karolina-zmarlak
p10
VKarolina Zmarlak
p11
sa(dp12
Vyears:2013
p13
V2013
p14
sa(dp15
Vfashion-lists:collection-type/rtw
p16
VRTW
p17
sa(dp18
Vfashion-lists:cities/new-york
p19
VNew York
p20
sa(dp21
Vdate
p22
V2012-09-07
p23
sasa(dp24
Vtag-status
p25
(lp26
(dp27
Vuntagged
p28
I25
sVtagged
p29
I0
sVtotal
p30
I25
sa(dp31
Vtagged
p32
(dp33
sa(dp34
Vuntagged
p35
(lp36
V/content/dam/fashion/shows/2013/spring/new-york/rtw/karolina-zmarlak/collection-full-length/15.jpg
p37
aV/content/dam/fashion/shows/2013/spring/new-york/rtw/karolina-zmarlak/collection-full-length/18.jpg
p38
aV/content/dam/fashion/shows/2013/spring/new-york/rtw/karolina-zmarlak/collection-full-length/16.jpg
p39
aV/content/dam/fashion/shows/2013/spring/new-york/rtw/karolina-zmarlak/collection-full-length/7.jpg
p40
aV/content/dam/fashion/shows/2013/spring/new-york/rtw/karolina-zmarlak/collection-full-length/21.jpg
p41
aV/content/dam/fashion/shows/2013/spring/new-york/rtw/karolina-zmarlak/collection-full-length/1.jpg
p42
aV/content/dam/fashion/shows/2013/spring/new-york/rtw/karolina-zmarlak/collection-full-length/5.jpg
p43
aV/content/dam/fashion/shows/2013/spring/new-york/rtw/karolina-zmarlak/collection-full-length/11.jpg
p44
aV/content/dam/fashion/shows/2013/spring/new-york/rtw/karolina-zmarlak/collection-full-length/23.jpg
p45
aV/content/dam/fashion/shows/2013/spring/new-york/rtw/karolina-zmarlak/collection-full-length/4.jpg
p46
aV/content/dam/fashion/shows/2013/spring/new-york/rtw/karolina-zmarlak/collection-full-length/14.jpg
p47
aV/content/dam/fashion/shows/2013/spring/new-york/rtw/karolina-zmarlak/collection-full-length/13.jpg
p48
aV/content/dam/fashion/shows/2013/spring/new-york/rtw/karolina-zmarlak/collection-full-length/3.jpg
p49
aV/content/dam/fashion/shows/2013/spring/new-york/rtw/karolina-zmarlak/collection-full-length/8.jpg
p50
aV/content/dam/fashion/shows/2013/spring/new-york/rtw/karolina-zmarlak/collection-full-length/2.jpg
p51
aV/content/dam/fashion/shows/2013/spring/new-york/rtw/karolina-zmarlak/collection-full-length/20.jpg
p52
aV/content/dam/fashion/shows/2013/spring/new-york/rtw/karolina-zmarlak/collection-full-length/25.jpg
p53
aV/content/dam/fashion/shows/2013/spring/new-york/rtw/karolina-zmarlak/collection-full-length/22.jpg
p54
aV/content/dam/fashion/shows/2013/spring/new-york/rtw/karolina-zmarlak/collection-full-length/9.jpg
p55
aV/content/dam/fashion/shows/2013/spring/new-york/rtw/karolina-zmarlak/collection-full-length/17.jpg
p56
aV/content/dam/fashion/shows/2013/spring/new-york/rtw/karolina-zmarlak/collection-full-length/19.jpg
p57
aV/content/dam/fashion/shows/2013/spring/new-york/rtw/karolina-zmarlak/collection-full-length/24.jpg
p58
aV/content/dam/fashion/shows/2013/spring/new-york/rtw/karolina-zmarlak/collection-full-length/12.jpg
p59
aV/content/dam/fashion/shows/2013/spring/new-york/rtw/karolina-zmarlak/collection-full-length/10.jpg
p60
aV/content/dam/fashion/shows/2013/spring/new-york/rtw/karolina-zmarlak/collection-full-length/6.jpg
p61
asasa(dp62
Vimage-sources
p63
(dp64
VStaff or Contracted
p65
VStaff or Contracted
p66
sVCourtesy shot
p67
VCourtesy shot
p68
sVFirstview
p69
VFirstview
p70
sVAP
p71
VAP
p72
sVGetty
p73
VGetty
p74
sVFilmMagic
p75
VFilmMagic
p76
sVPatrick McMullan
p77
VPatrick McMullan
p78
sVCorbis
p79
VCorbis
p80
sVMagnum
p81
VMagnum
p82
sVPolaris
p83
VPolaris
p84
sVImaxtree
p85
VImaxtree
p86
ssa(dp87
Vimage-sources-applied
p88
(dp89
Vcollection-back
p90
S''
p91
sVbackstage
p92
g91
sVcollection-full-length
p93
g91
sVbeauty
p94
g91
sVcollection-detail
p95
g91
ssa(dp96
Vgallery-title
p97
(dp98
Vcollection-back
p99
g91
sVbackstage
p100
VBackstage & Front Row
p101
sVcollection-full-length
p102
g91
sVbeauty
p103
g91
sVcollection-detail
p104
g91
ssa(dp105
Vmeta-description
p106
VView the Karolina Zmarlak Spring 2013 RTW collection. See photos and video of the S2013RTW runway show.
p107
sa(dp108
Vvideos
p109
(lp110
sa(dp111
Vpage-activation-status
p112
(dp113
Vdelivered
p114
Vtrue
p115
sVactivated
p116
Vtrue
p117
sVpending
p118
Vfalse
p119
sVdeactivated
p120
Vfalse
p121
ssa(dp122
Vslideshow-activation-status
p123
(dp124
Vfashion-backstage
p125
Vfalse
p126
sVfashion-backs
p127
Vfalse
p128
sVfashion-runway
p129
Vtrue
p130
sVfashion-details
p131
Vfalse
p132
sVfashion-beauty
p133
Vfalse
p134
ssa(dp135
Vpage-activation-history
p136
(dp137
sa(dp138
Voffset-coordinates
p139
(dp140
Vy
p141
V-25
p142
sVx
p143
V-359
p144
ssa(dp145
Vbeauty-notes
p146
g91
sa(dp147
Vcritical-reaction
p148
g91
sa(dp149
Vstandout-accessories
p150
(lp151
sa(dp152
Vtrends
p153
(lp154
sa(dp155
Vafter-party-slideshow
p156
g91
sa(dp157
Vshow-name
p158
VKarolina Zmarlak
p159
sa(lp160
a(dp161
Vone-sentence-review
p162
g91
sa(dp163
Vpalette-rendition-paths
p164
(lp165
sa(dp166
Vslideshow-creation-status
p167
(dp168
Vfashion-backstage
p169
I0
sVfashion-backs
p170
I0
sVfashion-runway
p171
I25
sVfashion-details
p172
I0
sVfashion-beauty
p173
I0
ssa(dp174
Vdisplay-show-notes
p175
g91
sa(dp176
VbackstageTeaser
p177
g91
sas.